target datalayout = "e-m:e-p270:32:32-p271:32:32-p272:64:64-i64:64-i128:128-f80:128-n8:16:32:64-S128"
target triple = "x86_64-pc-linux-gnu"

%struct.WebPRescaler = type { i32, i32, i32, i32, i32, i32, i32, i32, i32, i32, i32, i32, i32, i32, i32, i32, i32, ptr, i32, ptr, ptr }

; Function Attrs: nounwind uwtable
define internal i32 @RescalePlane(ptr noundef %0, i32 noundef %1, i32 noundef %2, i32 noundef %3, ptr noundef %4, i32 noundef %5, i32 noundef %6, i32 noundef %7, ptr noundef %8, i32 noundef %9) #0 {
  %11 = alloca i32, align 4
  %12 = alloca ptr, align 8
  %13 = alloca i32, align 4
  %14 = alloca i32, align 4
  %15 = alloca i32, align 4
  %16 = alloca ptr, align 8
  %17 = alloca i32, align 4
  %18 = alloca i32, align 4
  %19 = alloca i32, align 4
  %20 = alloca ptr, align 8
  %21 = alloca i32, align 4
  %22 = alloca %struct.WebPRescaler, align 8
  %23 = alloca i32, align 4
  %24 = alloca i32, align 4
  store ptr %0, ptr %12, align 8, !tbaa !27
  store i32 %1, ptr %13, align 4, !tbaa !26
  store i32 %2, ptr %14, align 4, !tbaa !26
  store i32 %3, ptr %15, align 4, !tbaa !26
  store ptr %4, ptr %16, align 8, !tbaa !27
  store i32 %5, ptr %17, align 4, !tbaa !26
  store i32 %6, ptr %18, align 4, !tbaa !26
  store i32 %7, ptr %19, align 4, !tbaa !26
  store ptr %8, ptr %20, align 8, !tbaa !29
  store i32 %9, ptr %21, align 4, !tbaa !26
  call void @llvm.lifetime.start.p0(i64 104, ptr %22) #4
  call void @llvm.lifetime.start.p0(i64 4, ptr %23) #4
  store i32 0, ptr %23, align 4, !tbaa !26
  %25 = load i32, ptr %13, align 4, !tbaa !26
  %26 = load i32, ptr %14, align 4, !tbaa !26
  %27 = load ptr, ptr %16, align 8, !tbaa !27
  %28 = load i32, ptr %17, align 4, !tbaa !26
  %29 = load i32, ptr %18, align 4, !tbaa !26
  %30 = load i32, ptr %19, align 4, !tbaa !26
  %31 = load i32, ptr %21, align 4, !tbaa !26
  %32 = load ptr, ptr %20, align 8, !tbaa !29
  %33 = call i32 @WebPRescalerInit(ptr noundef %22, i32 noundef %25, i32 noundef %26, ptr noundef %27, i32 noundef %28, i32 noundef %29, i32 noundef %30, i32 noundef %31, ptr noundef %32)
  %34 = icmp ne i32 %33, 0
  br i1 %34, label %36, label %35

35:                                               ; preds = %10
  store i32 0, ptr %11, align 4
  store i32 1, ptr %24, align 4
  br label %57

36:                                               ; preds = %10
  br label %37

37:                                               ; preds = %41, %36
  %38 = load i32, ptr %23, align 4, !tbaa !26
  %39 = load i32, ptr %14, align 4, !tbaa !26
  %40 = icmp slt i32 %38, %39
  br i1 %40, label %41, label %56

41:                                               ; preds = %37
  %42 = load i32, ptr %14, align 4, !tbaa !26
  %43 = load i32, ptr %23, align 4, !tbaa !26
  %44 = sub nsw i32 %42, %43
  %45 = load ptr, ptr %12, align 8, !tbaa !27
  %46 = load i32, ptr %23, align 4, !tbaa !26
  %47 = load i32, ptr %15, align 4, !tbaa !26
  %48 = mul nsw i32 %46, %47
  %49 = sext i32 %48 to i64
  %50 = getelementptr inbounds i8, ptr %45, i64 %49
  %51 = load i32, ptr %15, align 4, !tbaa !26
  %52 = call i32 @WebPRescalerImport(ptr noundef %22, i32 noundef %44, ptr noundef %50, i32 noundef %51)
  %53 = load i32, ptr %23, align 4, !tbaa !26
  %54 = add nsw i32 %53, %52
  store i32 %54, ptr %23, align 4, !tbaa !26
  %55 = call i32 @WebPRescalerExport(ptr noundef %22)
  br label %37, !llvm.loop !35

56:                                               ; preds = %37
  store i32 1, ptr %11, align 4
  store i32 1, ptr %24, align 4
  br label %57

57:                                               ; preds = %56, %35
  call void @llvm.lifetime.end.p0(i64 4, ptr %23) #4
  call void @llvm.lifetime.end.p0(i64 104, ptr %22) #4
  %58 = load i32, ptr %11, align 4
  ret i32 %58
}