; Function Attrs: nounwind uwtable
define internal fastcc range(i32 0, 2) i32 @RescalePlane(ptr noundef %0, i32 noundef %1, i32 noundef %2, i32 noundef %3, ptr noundef %4, i32 noundef %5, i32 noundef %6, i32 noundef %7, ptr noundef nonnull %8, i32 noundef range(i32 1, 5) %9) unnamed_addr #0 {
  %11 = alloca %struct.WebPRescaler, align 8
  call void @llvm.lifetime.start.p0(i64 104, ptr nonnull %11) #5
  %12 = call i32 @WebPRescalerInit(ptr noundef nonnull %11, i32 noundef %1, i32 noundef %2, ptr noundef %4, i32 noundef %5, i32 noundef %6, i32 noundef %7, i32 noundef %9, ptr noundef nonnull %8) #5
  %.not = icmp eq i32 %12, 0
  br i1 %.not, label %.loopexit, label %.preheader

.preheader:                                       ; preds = %10
  %13 = icmp sgt i32 %2, 0
  br i1 %13, label %.lr.ph, label %.loopexit

.lr.ph:                                           ; preds = %.preheader, %.lr.ph
  %.019 = phi i32 [ %19, %.lr.ph ], [ 0, %.preheader ]
  %14 = sub nsw i32 %2, %.019
  %15 = mul nsw i32 %.019, %3
  %16 = sext i32 %15 to i64
  %17 = getelementptr inbounds i8, ptr %0, i64 %16
  %18 = call i32 @WebPRescalerImport(ptr noundef nonnull %11, i32 noundef %14, ptr noundef %17, i32 noundef %3) #5
  %19 = add nsw i32 %18, %.019
  %20 = call i32 @WebPRescalerExport(ptr noundef nonnull %11) #5
  %21 = icmp slt i32 %19, %2
  br i1 %21, label %.lr.ph, label %.loopexit, !llvm.loop !31

.loopexit:                                        ; preds = %.lr.ph, %.preheader, %10
  %.017 = phi i32 [ 0, %10 ], [ 1, %.preheader ], [ 1, %.lr.ph ]
  call void @llvm.lifetime.end.p0(i64 104, ptr nonnull %11) #5
  ret i32 %.017
}